target datalayout = "e-m:e-p270:32:32-p271:32:32-p272:64:64-i64:64-i128:128-f80:128-n8:16:32:64-S128"
target triple = "x86_64-pc-linux-gnu"

%struct.parser_st_table = type { i8, i8, i8, i32, ptr, i64, ptr, i64, i64, ptr }
%struct.st_features = type { i8, i8, i8, i64 }

; Function Attrs: alwaysinline nounwind
define internal ptr @memcpy.inline(ptr noalias nonnull %0, ptr noalias nonnull %1, i64 %2) #11 {
  %4 = alloca ptr, align 8
  %5 = alloca ptr, align 8
  %6 = alloca i64, align 8
  store ptr %0, ptr %4, align 8, !tbaa !49
  store ptr %1, ptr %5, align 8, !tbaa !49
  store i64 %2, ptr %6, align 8, !tbaa !14
  %7 = load ptr, ptr %4, align 8, !tbaa !49
  %8 = load ptr, ptr %5, align 8, !tbaa !49
  %9 = load i64, ptr %6, align 8, !tbaa !14
  %10 = load ptr, ptr %4, align 8, !tbaa !49
  %11 = call i64 @llvm.objectsize.i64.p0(ptr %10, i1 false, i1 true, i1 false)
  %12 = call ptr @__memcpy_chk(ptr noundef %7, ptr noundef %8, i64 noundef %9, i64 noundef %11) #14
  ret ptr %12
}

; Function Attrs: inlinehint nounwind sspstrong uwtable
define internal ptr @nonempty_memcpy(ptr noundef %0, ptr noundef %1, i64 noundef %2) #3 {
  %4 = alloca ptr, align 8
  %5 = alloca ptr, align 8
  %6 = alloca ptr, align 8
  %7 = alloca i64, align 8
  store ptr %0, ptr %5, align 8, !tbaa !49
  store ptr %1, ptr %6, align 8, !tbaa !49
  store i64 %2, ptr %7, align 8, !tbaa !14
  %8 = load i64, ptr %7, align 8, !tbaa !14
  %9 = icmp ne i64 %8, 0
  br i1 %9, label %10, label %15

10:                                               ; preds = %3
  %11 = load ptr, ptr %5, align 8, !tbaa !49
  %12 = load ptr, ptr %6, align 8, !tbaa !49
  %13 = load i64, ptr %7, align 8, !tbaa !14
  %14 = call ptr @memcpy.inline(ptr noundef %11, ptr noundef %12, i64 noundef %13) #14
  store ptr %14, ptr %4, align 8
  br label %17

15:                                               ; preds = %3
  %16 = load ptr, ptr %5, align 8, !tbaa !49
  store ptr %16, ptr %4, align 8
  br label %17

17:                                               ; preds = %15, %10
  %18 = load ptr, ptr %4, align 8
  ret ptr %18
}

; Function Attrs: inlinehint nounwind sspstrong uwtable
define internal i64 @get_allocated_entries(ptr noundef %0) #3 {
  %2 = alloca ptr, align 8
  store ptr %0, ptr %2, align 8, !tbaa !7
  %3 = load ptr, ptr %2, align 8, !tbaa !7
  %4 = getelementptr inbounds nuw %struct.parser_st_table, ptr %3, i32 0, i32 0
  %5 = load i8, ptr %4, align 8, !tbaa !22
  %6 = zext i8 %5 to i32
  %7 = zext i32 %6 to i64
  %8 = shl i64 1, %7
  ret i64 %8
}

; Function Attrs: inlinehint nounwind sspstrong uwtable
define internal i64 @bins_size(ptr noundef %0) #3 {
  %2 = alloca ptr, align 8
  store ptr %0, ptr %2, align 8, !tbaa !7
  %3 = load ptr, ptr %2, align 8, !tbaa !7
  %4 = getelementptr inbounds nuw %struct.parser_st_table, ptr %3, i32 0, i32 0
  %5 = load i8, ptr %4, align 8, !tbaa !22
  %6 = zext i8 %5 to i64
  %7 = getelementptr [63 x %struct.st_features], ptr @features, i64 0, i64 %6
  %8 = getelementptr inbounds nuw %struct.st_features, ptr %7, i32 0, i32 3
  %9 = load i64, ptr %8, align 8, !tbaa !31
  %10 = mul i64 %9, 8
  ret i64 %10
}

; Function Attrs: nounwind sspstrong uwtable
define dso_local ptr @rb_parser_st_replace(ptr noundef %0, ptr noundef %1) #0 {
  %3 = alloca ptr, align 8
  %4 = alloca ptr, align 8
  %5 = alloca ptr, align 8
  store ptr %0, ptr %4, align 8, !tbaa !7
  store ptr %1, ptr %5, align 8, !tbaa !7
  %6 = load ptr, ptr %4, align 8, !tbaa !7
  %7 = load ptr, ptr %5, align 8, !tbaa !7
  call void @llvm.memcpy.p0.p0.i64(ptr align 8 %6, ptr align 8 %7, i64 56, i1 false), !tbaa.struct !50
  %8 = load ptr, ptr %5, align 8, !tbaa !7
  %9 = getelementptr inbounds nuw %struct.parser_st_table, ptr %8, i32 0, i32 6
  %10 = load ptr, ptr %9, align 8, !tbaa !28
  %11 = icmp eq ptr %10, null
  br i1 %11, label %12, label %15

12:                                               ; preds = %2
  %13 = load ptr, ptr %4, align 8, !tbaa !7
  %14 = getelementptr inbounds nuw %struct.parser_st_table, ptr %13, i32 0, i32 6
  store ptr null, ptr %14, align 8, !tbaa !28
  br label %27

15:                                               ; preds = %2
  %16 = load ptr, ptr %5, align 8, !tbaa !7
  %17 = call i64 @bins_size(ptr noundef %16)
  %18 = call noalias ptr @malloc(i64 noundef %17) #15
  %19 = load ptr, ptr %4, align 8, !tbaa !7
  %20 = getelementptr inbounds nuw %struct.parser_st_table, ptr %19, i32 0, i32 6
  store ptr %18, ptr %20, align 8, !tbaa !28
  %21 = load ptr, ptr %4, align 8, !tbaa !7
  %22 = getelementptr inbounds nuw %struct.parser_st_table, ptr %21, i32 0, i32 6
  %23 = load ptr, ptr %22, align 8, !tbaa !28
  %24 = icmp eq ptr %23, null
  br i1 %24, label %25, label %26

25:                                               ; preds = %15
  store ptr null, ptr %3, align 8
  br label %67

26:                                               ; preds = %15
  br label %27

27:                                               ; preds = %26, %12
  %28 = load ptr, ptr %5, align 8, !tbaa !7
  %29 = call i64 @get_allocated_entries(ptr noundef %28)
  %30 = mul i64 %29, 24
  %31 = call noalias ptr @malloc(i64 noundef %30) #15
  %32 = load ptr, ptr %4, align 8, !tbaa !7
  %33 = getelementptr inbounds nuw %struct.parser_st_table, ptr %32, i32 0, i32 9
  store ptr %31, ptr %33, align 8, !tbaa !29
  %34 = load ptr, ptr %4, align 8, !tbaa !7
  %35 = getelementptr inbounds nuw %struct.parser_st_table, ptr %34, i32 0, i32 9
  %36 = load ptr, ptr %35, align 8, !tbaa !29
  %37 = icmp eq ptr %36, null
  br i1 %37, label %38, label %39

38:                                               ; preds = %27
  store ptr null, ptr %3, align 8
  br label %67

39:                                               ; preds = %27
  %40 = load ptr, ptr %4, align 8, !tbaa !7
  %41 = getelementptr inbounds nuw %struct.parser_st_table, ptr %40, i32 0, i32 9
  %42 = load ptr, ptr %41, align 8, !tbaa !29
  %43 = load ptr, ptr %5, align 8, !tbaa !7
  %44 = getelementptr inbounds nuw %struct.parser_st_table, ptr %43, i32 0, i32 9
  %45 = load ptr, ptr %44, align 8, !tbaa !29
  %46 = load ptr, ptr %5, align 8, !tbaa !7
  %47 = call i64 @get_allocated_entries(ptr noundef %46)
  %48 = mul i64 24, %47
  %49 = call ptr @nonempty_memcpy(ptr noundef %42, ptr noundef %45, i64 noundef %48)
  %50 = load ptr, ptr %5, align 8, !tbaa !7
  %51 = getelementptr inbounds nuw %struct.parser_st_table, ptr %50, i32 0, i32 6
  %52 = load ptr, ptr %51, align 8, !tbaa !28
  %53 = icmp ne ptr %52, null
  br i1 %53, label %54, label %65

54:                                               ; preds = %39
  %55 = load ptr, ptr %4, align 8, !tbaa !7
  %56 = getelementptr inbounds nuw %struct.parser_st_table, ptr %55, i32 0, i32 6
  %57 = load ptr, ptr %56, align 8, !tbaa !28
  %58 = load ptr, ptr %5, align 8, !tbaa !7
  %59 = getelementptr inbounds nuw %struct.parser_st_table, ptr %58, i32 0, i32 6
  %60 = load ptr, ptr %59, align 8, !tbaa !28
  %61 = load ptr, ptr %5, align 8, !tbaa !7
  %62 = call i64 @bins_size(ptr noundef %61)
  %63 = mul i64 1, %62
  %64 = call ptr @nonempty_memcpy(ptr noundef %57, ptr noundef %60, i64 noundef %63)
  br label %65

65:                                               ; preds = %54, %39
  %66 = load ptr, ptr %4, align 8, !tbaa !7
  store ptr %66, ptr %3, align 8
  br label %67

67:                                               ; preds = %65, %38, %25
  %68 = load ptr, ptr %3, align 8
  ret ptr %68
}