; Function Attrs: nofree nounwind sspstrong uwtable
define dso_local noundef ptr @rb_parser_st_replace(ptr noundef writeonly captures(ret: address, provenance) initializes((0, 56)) %0, ptr noundef readonly captures(none) %1) local_unnamed_addr #9 {
  tail call void @llvm.memcpy.p0.p0.i64(ptr noundef nonnull align 8 dereferenceable(56) %0, ptr noundef nonnull align 8 dereferenceable(56) %1, i64 56, i1 false), !tbaa.struct !52
  %3 = getelementptr inbounds nuw i8, ptr %1, i64 24
  %4 = load ptr, ptr %3, align 8, !tbaa !23
  %5 = icmp eq ptr %4, null
  br i1 %5, label %6, label %8

6:                                                ; preds = %2
  %7 = getelementptr inbounds nuw i8, ptr %0, i64 24
  store ptr null, ptr %7, align 8, !tbaa !23
  %.val23.pre = load i8, ptr %1, align 8, !tbaa !17
  %.pre = zext nneg i8 %.val23.pre to i64
  br label %16

8:                                                ; preds = %2
  %.val21 = load i8, ptr %1, align 8, !tbaa !17
  %9 = zext i8 %.val21 to i64
  %10 = getelementptr [63 x %struct.st_features], ptr @features, i64 0, i64 %9, i32 3
  %11 = load i64, ptr %10, align 8, !tbaa !24
  %12 = shl i64 %11, 3
  %13 = tail call noalias ptr @malloc(i64 noundef %12) #24
  %14 = getelementptr inbounds nuw i8, ptr %0, i64 24
  store ptr %13, ptr %14, align 8, !tbaa !23
  %15 = icmp eq ptr %13, null
  br i1 %15, label %nonempty_memcpy.exit26, label %16

16:                                               ; preds = %8, %6
  %.pre-phi = phi i64 [ %9, %8 ], [ %.pre, %6 ]
  %17 = phi ptr [ %13, %8 ], [ null, %6 ]
  %.val23 = phi i8 [ %.val21, %8 ], [ %.val23.pre, %6 ]
  %18 = shl i64 24, %.pre-phi
  %19 = tail call noalias ptr @malloc(i64 noundef %18) #24
  %20 = getelementptr inbounds nuw i8, ptr %0, i64 48
  store ptr %19, ptr %20, align 8, !tbaa !25
  %21 = icmp eq ptr %19, null
  br i1 %21, label %nonempty_memcpy.exit26, label %22

22:                                               ; preds = %16
  %.not.i = icmp ugt i8 %.val23, 60
  br i1 %.not.i, label %nonempty_memcpy.exit, label %23

23:                                               ; preds = %22
  %24 = getelementptr inbounds nuw i8, ptr %1, i64 48
  %25 = load ptr, ptr %24, align 8, !tbaa !25
  tail call void @llvm.memcpy.p0.p0.i64(ptr noundef nonnull align 1 %19, ptr noundef nonnull readonly align 1 %25, i64 noundef range(i64 1, 0) %18, i1 noundef false) #25
  br label %nonempty_memcpy.exit

nonempty_memcpy.exit:                             ; preds = %22, %23
  %26 = load ptr, ptr %3, align 8, !tbaa !23
  %.not = icmp eq ptr %26, null
  br i1 %.not, label %nonempty_memcpy.exit26, label %27

27:                                               ; preds = %nonempty_memcpy.exit
  %28 = getelementptr [63 x %struct.st_features], ptr @features, i64 0, i64 %.pre-phi, i32 3
  %29 = load i64, ptr %28, align 8, !tbaa !24
  %30 = shl i64 %29, 3
  %.not.i24 = icmp eq i64 %30, 0
  br i1 %.not.i24, label %nonempty_memcpy.exit26, label %31

31:                                               ; preds = %27
  tail call void @llvm.memcpy.p0.p0.i64(ptr noundef nonnull align 1 %17, ptr noundef nonnull readonly align 1 %26, i64 noundef range(i64 1, 0) %30, i1 noundef false) #25
  br label %nonempty_memcpy.exit26

nonempty_memcpy.exit26:                           ; preds = %31, %27, %nonempty_memcpy.exit, %16, %8
  %.0 = phi ptr [ null, %8 ], [ null, %16 ], [ %0, %nonempty_memcpy.exit ], [ %0, %27 ], [ %0, %31 ]
  ret ptr %.0
}